; Function Attrs: mustprogress uwtable
define void @_ZN3gmx8Mdrunner21BuilderImplementation18addHardwareOptionsERK12gmx_hw_opt_t(ptr noundef nonnull align 8 dereferenceable(376) initializes((224, 252)) %0, ptr noundef nonnull align 8 dereferenceable(97) %1) local_unnamed_addr #10 align 2 {
  %3 = getelementptr inbounds nuw i8, ptr %0, i64 224
  tail call void @llvm.memcpy.p0.p0.i64(ptr noundef nonnull align 8 dereferenceable(97) %3, ptr noundef nonnull align 8 dereferenceable(97) %1, i64 28, i1 false)
  %4 = getelementptr inbounds nuw i8, ptr %0, i64 256
  %5 = getelementptr inbounds nuw i8, ptr %1, i64 32
  tail call void @_ZNSt7__cxx1112basic_stringIcSt11char_traitsIcESaIcEE9_M_assignERKS4_(ptr noundef nonnull align 8 dereferenceable(32) %4, ptr noundef nonnull align 8 dereferenceable(32) %5)
  %6 = getelementptr inbounds nuw i8, ptr %0, i64 288
  %7 = getelementptr inbounds nuw i8, ptr %1, i64 64
  tail call void @_ZNSt7__cxx1112basic_stringIcSt11char_traitsIcESaIcEE9_M_assignERKS4_(ptr noundef nonnull align 8 dereferenceable(32) %6, ptr noundef nonnull align 8 dereferenceable(32) %7)
  %8 = getelementptr inbounds nuw i8, ptr %1, i64 96
  %9 = load i8, ptr %8, align 8, !tbaa !32, !range !36, !noundef !37
  %10 = getelementptr inbounds nuw i8, ptr %0, i64 320
  store i8 %9, ptr %10, align 8, !tbaa !32
  ret void
}